target datalayout = "e-m:e-p270:32:32-p271:32:32-p272:64:64-i64:64-i128:128-f80:128-n8:16:32:64-S128"
target triple = "x86_64-pc-linux-gnu"

%struct.RateControlContext = type { i32, ptr, double, [5 x %struct.Predictor], double, double, double, double, double, [5 x double], i64, i64, [5 x i64], [5 x i64], [5 x i64], [5 x i64], [5 x i32], i32, float, float, i32, float, float, ptr, ptr, ptr, ptr }
%struct.Predictor = type { double, double, double }

; Function Attrs: cold nounwind optsize uwtable
define void @ff_rate_control_uninit(ptr noundef %0) #3 {
  %2 = alloca ptr, align 8
  store ptr %0, ptr %2, align 8, !tbaa !89
  br label %3

3:                                                ; preds = %1
  br label %4

4:                                                ; preds = %3
  %5 = load ptr, ptr %2, align 8, !tbaa !89
  %6 = getelementptr inbounds nuw %struct.RateControlContext, ptr %5, i32 0, i32 24
  %7 = load ptr, ptr %6, align 8, !tbaa !166
  call void @av_expr_free(ptr noundef %7)
  %8 = load ptr, ptr %2, align 8, !tbaa !89
  %9 = getelementptr inbounds nuw %struct.RateControlContext, ptr %8, i32 0, i32 24
  store ptr null, ptr %9, align 8, !tbaa !166
  %10 = load ptr, ptr %2, align 8, !tbaa !89
  %11 = getelementptr inbounds nuw %struct.RateControlContext, ptr %10, i32 0, i32 1
  call void @av_freep(ptr noundef %11)
  %12 = load ptr, ptr %2, align 8, !tbaa !89
  %13 = getelementptr inbounds nuw %struct.RateControlContext, ptr %12, i32 0, i32 25
  call void @av_freep(ptr noundef %13)
  ret void
}