; Function Attrs: cold nounwind optsize uwtable
define void @ff_rate_control_uninit(ptr noundef %0) local_unnamed_addr #3 {
  %2 = getelementptr inbounds nuw i8, ptr %0, i64 456
  %3 = load ptr, ptr %2, align 8, !tbaa !164
  tail call void @av_expr_free(ptr noundef %3) #13
  store ptr null, ptr %2, align 8, !tbaa !164
  %4 = getelementptr inbounds nuw i8, ptr %0, i64 8
  tail call void @av_freep(ptr noundef nonnull %4) #13
  %5 = getelementptr inbounds nuw i8, ptr %0, i64 464
  tail call void @av_freep(ptr noundef nonnull %5) #13
  ret void
}